target datalayout = "e-m:e-p270:32:32-p271:32:32-p272:64:64-i64:64-i128:128-f80:128-n8:16:32:64-S128"
target triple = "x86_64-pc-linux-gnu"

%struct.repository = type { ptr, ptr, ptr, ptr, ptr, %struct.strmap, %struct.strmap, %struct.repo_path_cache, ptr, ptr, ptr, ptr, %struct.repo_settings, ptr, ptr, ptr, ptr, ptr, ptr, i32, i32, i32, ptr, ptr, i32, i32, i8 }
%struct.strmap = type { %struct.hashmap, ptr, i8 }
%struct.hashmap = type { ptr, ptr, ptr, i32, i32, i32, i32, i8 }
%struct.repo_path_cache = type { ptr, ptr, ptr, ptr, ptr, ptr, ptr }
%struct.repo_settings = type { i32, i32, i32, i32, i32, i32, i32, i32, i32, i32, i32, i32, ptr, i32, i32, i32, i32, i32, i32, i32, i64, i64, i64 }
%struct.raw_object_store = type { ptr, ptr, ptr, i32, ptr, ptr, i8, %union.pthread_mutex_t, ptr, i8, ptr, ptr, %struct.list_head, %struct.anon, %struct.hashmap, i64, i8 }
%union.pthread_mutex_t = type { %struct.__pthread_mutex_s }
%struct.__pthread_mutex_s = type { i32, i32, i32, i32, i32, i16, i16, %struct.__pthread_internal_list }
%struct.__pthread_internal_list = type { ptr, ptr }
%struct.list_head = type { ptr, ptr }
%struct.anon = type { ptr, i32 }

@.str = private unnamed_addr constant [22 x i8] c"GIT_TEST_COMMIT_GRAPH\00", align 1
@.str.1 = private unnamed_addr constant [36 x i8] c"GIT_TEST_COMMIT_GRAPH_CHANGED_PATHS\00", align 1
@the_repository = external global ptr, align 8
@.str.2 = private unnamed_addr constant [57 x i8] c"failed to write commit-graph under GIT_TEST_COMMIT_GRAPH\00", align 1

; Function Attrs: nounwind uwtable
define dso_local void @git_test_write_commit_graph_or_die() #0 {
  %1 = alloca i32, align 4
  %2 = alloca i32, align 4
  call void @llvm.lifetime.start.p0(i64 4, ptr %1) #12
  store i32 0, ptr %1, align 4, !tbaa !4
  %3 = call i32 @git_env_bool(ptr noundef @.str, i32 noundef 0)
  %4 = icmp ne i32 %3, 0
  br i1 %4, label %6, label %5

5:                                                ; preds = %0
  store i32 1, ptr %2, align 4
  br label %21

6:                                                ; preds = %0
  %7 = call i32 @git_env_bool(ptr noundef @.str.1, i32 noundef 0)
  %8 = icmp ne i32 %7, 0
  br i1 %8, label %9, label %10

9:                                                ; preds = %6
  store i32 8, ptr %1, align 4, !tbaa !4
  br label %10

10:                                               ; preds = %9, %6
  %11 = load ptr, ptr @the_repository, align 8, !tbaa !8
  %12 = getelementptr inbounds nuw %struct.repository, ptr %11, i32 0, i32 2
  %13 = load ptr, ptr %12, align 8, !tbaa !11
  %14 = getelementptr inbounds nuw %struct.raw_object_store, ptr %13, i32 0, i32 0
  %15 = load ptr, ptr %14, align 8, !tbaa !31
  %16 = load i32, ptr %1, align 4, !tbaa !4
  %17 = call i32 @write_commit_graph_reachable(ptr noundef %15, i32 noundef %16, ptr noundef null)
  %18 = icmp ne i32 %17, 0
  br i1 %18, label %19, label %20

19:                                               ; preds = %10
  call void (ptr, ...) @die(ptr noundef @.str.2) #13
  unreachable

20:                                               ; preds = %10
  store i32 0, ptr %2, align 4
  br label %21

21:                                               ; preds = %20, %5
  call void @llvm.lifetime.end.p0(i64 4, ptr %1) #12
  %22 = load i32, ptr %2, align 4
  switch i32 %22, label %24 [
    i32 0, label %23
    i32 1, label %23
  ]

23:                                               ; preds = %21, %21
  ret void

24:                                               ; preds = %21
  unreachable
}