; Function Attrs: nounwind uwtable
define dso_local void @git_test_write_commit_graph_or_die() local_unnamed_addr #0 {
  %1 = tail call i32 @git_env_bool(ptr noundef nonnull @.str, i32 noundef 0) #24
  %.not = icmp eq i32 %1, 0
  br i1 %.not, label %10, label %2

2:                                                ; preds = %0
  %3 = tail call i32 @git_env_bool(ptr noundef nonnull @.str.1, i32 noundef 0) #24
  %.not1 = icmp eq i32 %3, 0
  %spec.select = select i1 %.not1, i32 0, i32 8
  %4 = load ptr, ptr @the_repository, align 8, !tbaa !4
  %5 = getelementptr inbounds nuw i8, ptr %4, i64 16
  %6 = load ptr, ptr %5, align 8, !tbaa !9
  %7 = load ptr, ptr %6, align 8, !tbaa !30
  %8 = tail call i32 @write_commit_graph_reachable(ptr noundef %7, i32 noundef %spec.select, ptr noundef null)
  %.not2 = icmp eq i32 %8, 0
  br i1 %.not2, label %10, label %9

9:                                                ; preds = %2
  tail call void (ptr, ...) @die(ptr noundef nonnull @.str.2) #25
  unreachable

10:                                               ; preds = %2, %0
  ret void
}